target datalayout = "e-m:e-p270:32:32-p271:32:32-p272:64:64-i64:64-i128:128-f80:128-n8:16:32:64-S128"
target triple = "x86_64-pc-linux-gnu"

%struct.H5L_class_t = type { i32, i32, ptr, ptr, ptr, ptr, ptr, ptr, ptr }

@.str = private unnamed_addr constant [100 x i8] c"generated/home/dtcxzyw/WorkSpace/Projects/compilers/llvm-opt-benchmark/bench/hdf5/hdf5/src/H5Lint.c\00", align 1
@H5E_LINK_g = external global i64, align 8
@H5E_NOTREGISTERED_g = external global i64, align 8
@H5L_table_g = internal global ptr null, align 8
@H5L_table_used_g = internal global i64 0, align 8
@__func__.H5L_find_class = private unnamed_addr constant [15 x i8] c"H5L_find_class\00", align 1
@.str.2 = private unnamed_addr constant [26 x i8] c"unable to find link class\00", align 1

; Function Attrs: nounwind uwtable
define internal i32 @H5L__find_class_idx(i32 noundef %0) #0 {
  %2 = alloca i32, align 4
  %3 = alloca i64, align 8
  %4 = alloca i32, align 4
  store i32 %0, ptr %2, align 4
  store i32 -1, ptr %4, align 4
  store i64 0, ptr %3, align 8
  br label %5

5:                                                ; preds = %23, %1
  %6 = load i64, ptr %3, align 8
  %7 = load i64, ptr @H5L_table_used_g, align 8
  %8 = icmp ult i64 %6, %7
  br i1 %8, label %9, label %26

9:                                                ; preds = %5
  %10 = load ptr, ptr @H5L_table_g, align 8
  %11 = load i64, ptr %3, align 8
  %12 = getelementptr inbounds %struct.H5L_class_t, ptr %10, i64 %11
  %13 = getelementptr inbounds %struct.H5L_class_t, ptr %12, i32 0, i32 1
  %14 = load i32, ptr %13, align 4
  %15 = load i32, ptr %2, align 4
  %16 = icmp eq i32 %14, %15
  br i1 %16, label %17, label %22

17:                                               ; preds = %9
  br label %18

18:                                               ; preds = %17
  %19 = load i64, ptr %3, align 8
  %20 = trunc i64 %19 to i32
  store i32 %20, ptr %4, align 4
  br label %27

21:                                               ; No predecessors!
  br label %22

22:                                               ; preds = %21, %9
  br label %23

23:                                               ; preds = %22
  %24 = load i64, ptr %3, align 8
  %25 = add i64 %24, 1
  store i64 %25, ptr %3, align 8
  br label %5

26:                                               ; preds = %5
  br label %27

27:                                               ; preds = %26, %18
  %28 = load i32, ptr %4, align 4
  ret i32 %28
}

; Function Attrs: nounwind uwtable
define ptr @H5L_find_class(i32 noundef %0) #0 {
  %2 = alloca i32, align 4
  %3 = alloca i32, align 4
  %4 = alloca ptr, align 8
  %5 = alloca i8, align 1
  store i32 %0, ptr %2, align 4
  store ptr null, ptr %4, align 8
  store i8 0, ptr %5, align 1
  %6 = load i32, ptr %2, align 4
  %7 = call i32 @H5L__find_class_idx(i32 noundef %6)
  store i32 %7, ptr %3, align 4
  %8 = icmp slt i32 %7, 0
  br i1 %8, label %9, label %24

9:                                                ; preds = %1
  br label %10

10:                                               ; preds = %9
  br label %11

11:                                               ; preds = %10
  br label %12

12:                                               ; preds = %11
  %13 = load i64, ptr @H5E_LINK_g, align 8
  %14 = load i64, ptr @H5E_NOTREGISTERED_g, align 8
  %15 = call i32 (ptr, ptr, i32, i64, i64, ptr, ...) @H5E_printf_stack(ptr noundef @.str, ptr noundef @__func__.H5L_find_class, i32 noundef 291, i64 noundef %13, i64 noundef %14, ptr noundef @.str.2)
  br label %16

16:                                               ; preds = %12
  store i8 1, ptr %5, align 1
  %17 = load i8, ptr %5, align 1
  %18 = trunc i8 %17 to i1
  %19 = zext i1 %18 to i8
  store i8 %19, ptr %5, align 1
  br label %20

20:                                               ; preds = %16
  br label %21

21:                                               ; preds = %20
  store ptr null, ptr %4, align 8
  br label %29

22:                                               ; No predecessors!
  br label %23

23:                                               ; preds = %22
  br label %24

24:                                               ; preds = %23, %1
  %25 = load ptr, ptr @H5L_table_g, align 8
  %26 = load i32, ptr %3, align 4
  %27 = sext i32 %26 to i64
  %28 = getelementptr inbounds %struct.H5L_class_t, ptr %25, i64 %27
  store ptr %28, ptr %4, align 8
  br label %29

29:                                               ; preds = %24, %21
  %30 = load ptr, ptr %4, align 8
  ret ptr %30
}