; Function Attrs: nounwind uwtable
define ptr @H5L_find_class(i32 noundef %0) local_unnamed_addr #0 {
  %2 = load i64, ptr @H5L_table_used_g, align 8
  %.not.i = icmp eq i64 %2, 0
  br i1 %.not.i, label %H5L__find_class_idx.exit.thread, label %.lr.ph.i

.lr.ph.i:                                         ; preds = %1
  %3 = load ptr, ptr @H5L_table_g, align 8
  br label %4

4:                                                ; preds = %8, %.lr.ph.i
  %.068.i = phi i64 [ 0, %.lr.ph.i ], [ %9, %8 ]
  %5 = getelementptr inbounds %struct.H5L_class_t, ptr %3, i64 %.068.i, i32 1
  %6 = load i32, ptr %5, align 4
  %7 = icmp eq i32 %6, %0
  br i1 %7, label %H5L__find_class_idx.exit, label %8

8:                                                ; preds = %4
  %9 = add nuw i64 %.068.i, 1
  %exitcond.not.i = icmp eq i64 %9, %2
  br i1 %exitcond.not.i, label %H5L__find_class_idx.exit.thread, label %4

H5L__find_class_idx.exit:                         ; preds = %4
  %10 = and i64 %.068.i, 2147483648
  %.not = icmp eq i64 %10, 0
  br i1 %.not, label %14, label %H5L__find_class_idx.exit.thread

H5L__find_class_idx.exit.thread:                  ; preds = %8, %1, %H5L__find_class_idx.exit
  %11 = load i64, ptr @H5E_LINK_g, align 8
  %12 = load i64, ptr @H5E_NOTREGISTERED_g, align 8
  %13 = tail call i32 (ptr, ptr, i32, i64, i64, ptr, ...) @H5E_printf_stack(ptr noundef nonnull @.str, ptr noundef nonnull @__func__.H5L_find_class, i32 noundef 291, i64 noundef %11, i64 noundef %12, ptr noundef nonnull @.str.2) #10
  br label %17

14:                                               ; preds = %H5L__find_class_idx.exit
  %15 = and i64 %.068.i, 2147483647
  %16 = getelementptr inbounds %struct.H5L_class_t, ptr %3, i64 %15
  br label %17

17:                                               ; preds = %14, %H5L__find_class_idx.exit.thread
  %.0 = phi ptr [ null, %H5L__find_class_idx.exit.thread ], [ %16, %14 ]
  ret ptr %.0
}